target datalayout = "e-m:e-p270:32:32-p271:32:32-p272:64:64-i64:64-i128:128-f80:128-n8:16:32:64-S128"
target triple = "x86_64-unknown-linux-gnu"

%struct.b2Transform = type { %struct.b2Vec2, %struct.b2Rot }
%struct.b2Vec2 = type { float, float }
%struct.b2Rot = type { float, float }
%struct.b2JointUserData = type { i64 }
%class.b2GearJoint = type <{ %class.b2Joint, ptr, ptr, i32, i32, ptr, ptr, %struct.b2Vec2, %struct.b2Vec2, %struct.b2Vec2, %struct.b2Vec2, %struct.b2Vec2, %struct.b2Vec2, float, float, float, float, float, float, i32, i32, i32, i32, %struct.b2Vec2, %struct.b2Vec2, %struct.b2Vec2, %struct.b2Vec2, float, float, float, float, float, float, float, float, %struct.b2Vec2, %struct.b2Vec2, float, float, float, float, float, [4 x i8] }>
%class.b2Joint = type { ptr, i32, ptr, ptr, %struct.b2JointEdge, %struct.b2JointEdge, ptr, ptr, i32, i8, i8, %struct.b2JointUserData }
%struct.b2JointEdge = type { ptr, ptr, ptr, ptr }
%class.b2Body = type { i32, i16, i32, %struct.b2Transform, %struct.b2Sweep, %struct.b2Vec2, float, %struct.b2Vec2, float, ptr, ptr, ptr, ptr, i32, ptr, ptr, float, float, float, float, float, float, float, float, %struct.b2BodyUserData }
%struct.b2Sweep = type { %struct.b2Vec2, %struct.b2Vec2, %struct.b2Vec2, float, float, float }
%struct.b2BodyUserData = type { i64 }

@.str = private unnamed_addr constant [22 x i8] c"  b2GearJointDef jd;\0A\00", align 1
@.str.1 = private unnamed_addr constant [26 x i8] c"  jd.bodyA = bodies[%d];\0A\00", align 1
@.str.2 = private unnamed_addr constant [26 x i8] c"  jd.bodyB = bodies[%d];\0A\00", align 1
@.str.3 = private unnamed_addr constant [35 x i8] c"  jd.collideConnected = bool(%d);\0A\00", align 1
@.str.4 = private unnamed_addr constant [27 x i8] c"  jd.joint1 = joints[%d];\0A\00", align 1
@.str.5 = private unnamed_addr constant [27 x i8] c"  jd.joint2 = joints[%d];\0A\00", align 1
@.str.6 = private unnamed_addr constant [20 x i8] c"  jd.ratio = %.9g;\0A\00", align 1
@.str.7 = private unnamed_addr constant [43 x i8] c"  joints[%d] = m_world->CreateJoint(&jd);\0A\00", align 1

; Function Attrs: mustprogress uwtable
define void @_ZN11b2GearJoint4DumpEv(ptr noundef nonnull align 8 dereferenceable(356) %this) unnamed_addr #5 align 2 {
entry:
  %this.addr = alloca ptr, align 8
  %indexA = alloca i32, align 4
  %indexB = alloca i32, align 4
  %index1 = alloca i32, align 4
  %index2 = alloca i32, align 4
  store ptr %this, ptr %this.addr, align 8
  %this1 = load ptr, ptr %this.addr, align 8
  %m_bodyA = getelementptr inbounds %class.b2Joint, ptr %this1, i32 0, i32 6
  %0 = load ptr, ptr %m_bodyA, align 8
  %m_islandIndex = getelementptr inbounds %class.b2Body, ptr %0, i32 0, i32 2
  %1 = load i32, ptr %m_islandIndex, align 8
  store i32 %1, ptr %indexA, align 4
  %m_bodyB = getelementptr inbounds %class.b2Joint, ptr %this1, i32 0, i32 7
  %2 = load ptr, ptr %m_bodyB, align 8
  %m_islandIndex2 = getelementptr inbounds %class.b2Body, ptr %2, i32 0, i32 2
  %3 = load i32, ptr %m_islandIndex2, align 8
  store i32 %3, ptr %indexB, align 4
  %m_joint1 = getelementptr inbounds %class.b2GearJoint, ptr %this1, i32 0, i32 1
  %4 = load ptr, ptr %m_joint1, align 8
  %m_index = getelementptr inbounds %class.b2Joint, ptr %4, i32 0, i32 8
  %5 = load i32, ptr %m_index, align 8
  store i32 %5, ptr %index1, align 4
  %m_joint2 = getelementptr inbounds %class.b2GearJoint, ptr %this1, i32 0, i32 2
  %6 = load ptr, ptr %m_joint2, align 8
  %m_index3 = getelementptr inbounds %class.b2Joint, ptr %6, i32 0, i32 8
  %7 = load i32, ptr %m_index3, align 8
  store i32 %7, ptr %index2, align 4
  call void (ptr, ...) @_Z6b2DumpPKcz(ptr noundef @.str)
  %8 = load i32, ptr %indexA, align 4
  call void (ptr, ...) @_Z6b2DumpPKcz(ptr noundef @.str.1, i32 noundef %8)
  %9 = load i32, ptr %indexB, align 4
  call void (ptr, ...) @_Z6b2DumpPKcz(ptr noundef @.str.2, i32 noundef %9)
  %m_collideConnected = getelementptr inbounds %class.b2Joint, ptr %this1, i32 0, i32 10
  %10 = load i8, ptr %m_collideConnected, align 1
  %tobool = trunc i8 %10 to i1
  %conv = zext i1 %tobool to i32
  call void (ptr, ...) @_Z6b2DumpPKcz(ptr noundef @.str.3, i32 noundef %conv)
  %11 = load i32, ptr %index1, align 4
  call void (ptr, ...) @_Z6b2DumpPKcz(ptr noundef @.str.4, i32 noundef %11)
  %12 = load i32, ptr %index2, align 4
  call void (ptr, ...) @_Z6b2DumpPKcz(ptr noundef @.str.5, i32 noundef %12)
  %m_ratio = getelementptr inbounds %class.b2GearJoint, ptr %this1, i32 0, i32 16
  %13 = load float, ptr %m_ratio, align 4
  %conv4 = fpext float %13 to double
  call void (ptr, ...) @_Z6b2DumpPKcz(ptr noundef @.str.6, double noundef %conv4)
  %m_index5 = getelementptr inbounds %class.b2Joint, ptr %this1, i32 0, i32 8
  %14 = load i32, ptr %m_index5, align 8
  call void (ptr, ...) @_Z6b2DumpPKcz(ptr noundef @.str.7, i32 noundef %14)
  ret void
}