; Function Attrs: mustprogress uwtable
define void @_ZN11b2GearJoint4DumpEv(ptr nocapture noundef nonnull readonly align 8 dereferenceable(356) %this) unnamed_addr #9 align 2 {
entry:
  %m_bodyA = getelementptr inbounds i8, ptr %this, i64 96
  %0 = load ptr, ptr %m_bodyA, align 8
  %m_islandIndex = getelementptr inbounds i8, ptr %0, i64 8
  %1 = load i32, ptr %m_islandIndex, align 8
  %m_bodyB = getelementptr inbounds i8, ptr %this, i64 104
  %2 = load ptr, ptr %m_bodyB, align 8
  %m_islandIndex2 = getelementptr inbounds i8, ptr %2, i64 8
  %3 = load i32, ptr %m_islandIndex2, align 8
  %m_joint1 = getelementptr inbounds i8, ptr %this, i64 128
  %4 = load ptr, ptr %m_joint1, align 8
  %m_index = getelementptr inbounds i8, ptr %4, i64 112
  %5 = load i32, ptr %m_index, align 8
  %m_joint2 = getelementptr inbounds i8, ptr %this, i64 136
  %6 = load ptr, ptr %m_joint2, align 8
  %m_index3 = getelementptr inbounds i8, ptr %6, i64 112
  %7 = load i32, ptr %m_index3, align 8
  tail call void (ptr, ...) @_Z6b2DumpPKcz(ptr noundef nonnull @.str)
  tail call void (ptr, ...) @_Z6b2DumpPKcz(ptr noundef nonnull @.str.1, i32 noundef %1)
  tail call void (ptr, ...) @_Z6b2DumpPKcz(ptr noundef nonnull @.str.2, i32 noundef %3)
  %m_collideConnected = getelementptr inbounds i8, ptr %this, i64 117
  %8 = load i8, ptr %m_collideConnected, align 1
  %9 = and i8 %8, 1
  %conv = zext nneg i8 %9 to i32
  tail call void (ptr, ...) @_Z6b2DumpPKcz(ptr noundef nonnull @.str.3, i32 noundef %conv)
  tail call void (ptr, ...) @_Z6b2DumpPKcz(ptr noundef nonnull @.str.4, i32 noundef %5)
  tail call void (ptr, ...) @_Z6b2DumpPKcz(ptr noundef nonnull @.str.5, i32 noundef %7)
  %m_ratio = getelementptr inbounds i8, ptr %this, i64 228
  %10 = load float, ptr %m_ratio, align 4
  %conv4 = fpext float %10 to double
  tail call void (ptr, ...) @_Z6b2DumpPKcz(ptr noundef nonnull @.str.6, double noundef %conv4)
  %m_index5 = getelementptr inbounds i8, ptr %this, i64 112
  %11 = load i32, ptr %m_index5, align 8
  tail call void (ptr, ...) @_Z6b2DumpPKcz(ptr noundef nonnull @.str.7, i32 noundef %11)
  ret void
}